; Function Attrs: mustprogress nofree norecurse nosync nounwind willreturn memory(argmem: read) uwtable
define i32 @ossl_rsa_pss_params_30_saltlen(ptr noundef readonly captures(address_is_null) %0) local_unnamed_addr #7 {
  %2 = icmp eq ptr %0, null
  br i1 %2, label %6, label %3

3:                                                ; preds = %1
  %4 = getelementptr inbounds nuw i8, ptr %0, i64 12
  %5 = load i32, ptr %4, align 4, !tbaa !32
  br label %6

6:                                                ; preds = %1, %3
  %.0 = phi i32 [ %5, %3 ], [ 20, %1 ]
  ret i32 %.0
}